target datalayout = "e-m:e-p270:32:32-p271:32:32-p272:64:64-i64:64-i128:128-f80:128-n8:16:32:64-S128"
target triple = "x86_64-pc-linux-gnu"

@.str.45 = private unnamed_addr constant [3 x i8] c"0x\00", align 1

; Function Attrs: nounwind uwtable
define internal void @SDL_LoadVIDPIDListFromHint(ptr noundef %0, ptr noundef %1, ptr noundef %2, ptr noundef %3) #0 {
  %5 = alloca ptr, align 8
  %6 = alloca ptr, align 8
  %7 = alloca ptr, align 8
  %8 = alloca ptr, align 8
  %9 = alloca i32, align 4
  %10 = alloca ptr, align 8
  %11 = alloca ptr, align 8
  %12 = alloca i32, align 4
  %13 = alloca i32, align 4
  %14 = alloca ptr, align 8
  store ptr %0, ptr %5, align 8
  store ptr %1, ptr %6, align 8
  store ptr %2, ptr %7, align 8
  store ptr %3, ptr %8, align 8
  call void @llvm.lifetime.start.p0(i64 4, ptr %9) #7
  call void @llvm.lifetime.start.p0(i64 8, ptr %10) #7
  call void @llvm.lifetime.start.p0(i64 8, ptr %11) #7
  store ptr null, ptr %11, align 8
  %15 = load ptr, ptr %5, align 8
  %16 = icmp ne ptr %15, null
  br i1 %16, label %17, label %26

17:                                               ; preds = %4
  %18 = load ptr, ptr %5, align 8
  %19 = load i8, ptr %18, align 1
  %20 = sext i8 %19 to i32
  %21 = icmp eq i32 %20, 64
  br i1 %21, label %22, label %26

22:                                               ; preds = %17
  %23 = load ptr, ptr %5, align 8
  %24 = getelementptr inbounds i8, ptr %23, i64 1
  %25 = call ptr @SDL_LoadFile_REAL(ptr noundef %24, ptr noundef null)
  store ptr %25, ptr %11, align 8
  store ptr %25, ptr %10, align 8
  br label %28

26:                                               ; preds = %17, %4
  %27 = load ptr, ptr %5, align 8
  store ptr %27, ptr %10, align 8
  br label %28

28:                                               ; preds = %26, %22
  %29 = load ptr, ptr %10, align 8
  %30 = icmp ne ptr %29, null
  br i1 %30, label %32, label %31

31:                                               ; preds = %28
  store i32 1, ptr %12, align 4
  br label %97

32:                                               ; preds = %28
  br label %33

33:                                               ; preds = %82, %32
  %34 = load ptr, ptr %10, align 8
  %35 = call ptr @SDL_strstr_REAL(ptr noundef %34, ptr noundef @.str.45)
  store ptr %35, ptr %10, align 8
  %36 = icmp ne ptr %35, null
  br i1 %36, label %37, label %91

37:                                               ; preds = %33
  %38 = load ptr, ptr %10, align 8
  %39 = call i64 @SDL_strtol_REAL(ptr noundef %38, ptr noundef %10, i32 noundef 0)
  %40 = trunc i64 %39 to i16
  %41 = zext i16 %40 to i32
  store i32 %41, ptr %9, align 4
  %42 = load i32, ptr %9, align 4
  %43 = shl i32 %42, 16
  store i32 %43, ptr %9, align 4
  %44 = load ptr, ptr %10, align 8
  %45 = call ptr @SDL_strstr_REAL(ptr noundef %44, ptr noundef @.str.45)
  store ptr %45, ptr %10, align 8
  %46 = load ptr, ptr %10, align 8
  %47 = icmp ne ptr %46, null
  br i1 %47, label %49, label %48

48:                                               ; preds = %37
  br label %91

49:                                               ; preds = %37
  %50 = load ptr, ptr %10, align 8
  %51 = call i64 @SDL_strtol_REAL(ptr noundef %50, ptr noundef %10, i32 noundef 0)
  %52 = trunc i64 %51 to i16
  %53 = zext i16 %52 to i32
  %54 = load i32, ptr %9, align 4
  %55 = or i32 %54, %53
  store i32 %55, ptr %9, align 4
  %56 = load ptr, ptr %6, align 8
  %57 = load i32, ptr %56, align 4
  %58 = load ptr, ptr %7, align 8
  %59 = load i32, ptr %58, align 4
  %60 = icmp eq i32 %57, %59
  br i1 %60, label %61, label %82

61:                                               ; preds = %49
  call void @llvm.lifetime.start.p0(i64 4, ptr %13) #7
  %62 = load ptr, ptr %7, align 8
  %63 = load i32, ptr %62, align 4
  %64 = add nsw i32 %63, 16
  store i32 %64, ptr %13, align 4
  call void @llvm.lifetime.start.p0(i64 8, ptr %14) #7
  %65 = load ptr, ptr %8, align 8
  %66 = load ptr, ptr %65, align 8
  %67 = load i32, ptr %13, align 4
  %68 = sext i32 %67 to i64
  %69 = mul i64 %68, 4
  %70 = call ptr @SDL_realloc_REAL(ptr noundef %66, i64 noundef %69) #9
  store ptr %70, ptr %14, align 8
  %71 = load ptr, ptr %14, align 8
  %72 = icmp ne ptr %71, null
  br i1 %72, label %74, label %73

73:                                               ; preds = %61
  store i32 3, ptr %12, align 4
  br label %79

74:                                               ; preds = %61
  %75 = load ptr, ptr %14, align 8
  %76 = load ptr, ptr %8, align 8
  store ptr %75, ptr %76, align 8
  %77 = load i32, ptr %13, align 4
  %78 = load ptr, ptr %7, align 8
  store i32 %77, ptr %78, align 4
  store i32 0, ptr %12, align 4
  br label %79

79:                                               ; preds = %74, %73
  call void @llvm.lifetime.end.p0(i64 8, ptr %14) #7
  call void @llvm.lifetime.end.p0(i64 4, ptr %13) #7
  %80 = load i32, ptr %12, align 4
  switch i32 %80, label %100 [
    i32 0, label %81
    i32 3, label %91
  ]

81:                                               ; preds = %79
  br label %82

82:                                               ; preds = %81, %49
  %83 = load i32, ptr %9, align 4
  %84 = load ptr, ptr %8, align 8
  %85 = load ptr, ptr %84, align 8
  %86 = load ptr, ptr %6, align 8
  %87 = load i32, ptr %86, align 4
  %88 = add nsw i32 %87, 1
  store i32 %88, ptr %86, align 4
  %89 = sext i32 %87 to i64
  %90 = getelementptr inbounds i32, ptr %85, i64 %89
  store i32 %83, ptr %90, align 4
  br label %33, !llvm.loop !44

91:                                               ; preds = %79, %48, %33
  %92 = load ptr, ptr %11, align 8
  %93 = icmp ne ptr %92, null
  br i1 %93, label %94, label %96

94:                                               ; preds = %91
  %95 = load ptr, ptr %11, align 8
  call void @SDL_free_REAL(ptr noundef %95)
  br label %96

96:                                               ; preds = %94, %91
  store i32 0, ptr %12, align 4
  br label %97

97:                                               ; preds = %96, %31
  call void @llvm.lifetime.end.p0(i64 8, ptr %11) #7
  call void @llvm.lifetime.end.p0(i64 8, ptr %10) #7
  call void @llvm.lifetime.end.p0(i64 4, ptr %9) #7
  %98 = load i32, ptr %12, align 4
  switch i32 %98, label %100 [
    i32 0, label %99
    i32 1, label %99
  ]

99:                                               ; preds = %97, %97
  ret void

100:                                              ; preds = %97, %79
  unreachable
}