; Function Attrs: nounwind uwtable
define internal fastcc void @SDL_LoadVIDPIDListFromHint(ptr noundef %0, ptr noundef captures(none) %1, ptr noundef captures(none) %2, ptr noundef captures(none) %3) unnamed_addr #1 {
  %5 = alloca ptr, align 8
  call void @llvm.lifetime.start.p0(i64 8, ptr nonnull %5) #13
  %.not = icmp eq ptr %0, null
  br i1 %.not, label %.thread, label %6

6:                                                ; preds = %4
  %7 = load i8, ptr %0, align 1
  %8 = icmp eq i8 %7, 64
  br i1 %8, label %9, label %.preheader

9:                                                ; preds = %6
  %10 = getelementptr inbounds nuw i8, ptr %0, i64 1
  %11 = tail call ptr @SDL_LoadFile_REAL(ptr noundef nonnull %10, ptr noundef null) #13
  %.not27 = icmp eq ptr %11, null
  br i1 %.not27, label %.thread, label %.preheader

.preheader:                                       ; preds = %6, %9
  %.044 = phi ptr [ %11, %9 ], [ null, %6 ]
  %12 = phi ptr [ %11, %9 ], [ %0, %6 ]
  %13 = tail call ptr @SDL_strstr_REAL(ptr noundef nonnull %12, ptr noundef nonnull @.str.45) #13
  store ptr %13, ptr %5, align 8
  %.not2838 = icmp eq ptr %13, null
  br i1 %.not2838, label %._crit_edge, label %.lr.ph

.lr.ph:                                           ; preds = %.preheader, %34
  %14 = phi ptr [ %41, %34 ], [ %13, %.preheader ]
  %15 = call i64 @SDL_strtol_REAL(ptr noundef nonnull %14, ptr noundef nonnull %5, i32 noundef 0) #13
  %16 = load ptr, ptr %5, align 8
  %17 = call ptr @SDL_strstr_REAL(ptr noundef %16, ptr noundef nonnull @.str.45) #13
  store ptr %17, ptr %5, align 8
  %.not29 = icmp eq ptr %17, null
  br i1 %.not29, label %._crit_edge, label %18

18:                                               ; preds = %.lr.ph
  %19 = trunc i64 %15 to i32
  %20 = shl i32 %19, 16
  %21 = call i64 @SDL_strtol_REAL(ptr noundef nonnull %17, ptr noundef nonnull %5, i32 noundef 0) #13
  %22 = trunc i64 %21 to i32
  %23 = and i32 %22, 65535
  %24 = or disjoint i32 %23, %20
  %25 = load i32, ptr %1, align 4
  %26 = load i32, ptr %2, align 4
  %27 = icmp eq i32 %25, %26
  br i1 %27, label %28, label %34

28:                                               ; preds = %18
  %29 = add nsw i32 %25, 16
  %30 = load ptr, ptr %3, align 8
  %31 = sext i32 %29 to i64
  %32 = shl nsw i64 %31, 2
  %33 = call ptr @SDL_realloc_REAL(ptr noundef %30, i64 noundef %32) #15
  %.not30 = icmp eq ptr %33, null
  br i1 %.not30, label %._crit_edge, label %.thread35

.thread35:                                        ; preds = %28
  store ptr %33, ptr %3, align 8
  store i32 %29, ptr %2, align 4
  %.pre = load i32, ptr %1, align 4
  br label %34

34:                                               ; preds = %.thread35, %18
  %35 = phi i32 [ %.pre, %.thread35 ], [ %25, %18 ]
  %36 = load ptr, ptr %3, align 8
  %37 = add nsw i32 %35, 1
  store i32 %37, ptr %1, align 4
  %38 = sext i32 %35 to i64
  %39 = getelementptr inbounds i32, ptr %36, i64 %38
  store i32 %24, ptr %39, align 4
  %40 = load ptr, ptr %5, align 8
  %41 = call ptr @SDL_strstr_REAL(ptr noundef %40, ptr noundef nonnull @.str.45) #13
  store ptr %41, ptr %5, align 8
  %.not28 = icmp eq ptr %41, null
  br i1 %.not28, label %._crit_edge, label %.lr.ph, !llvm.loop !46

._crit_edge:                                      ; preds = %34, %.lr.ph, %28, %.preheader
  %.not31 = icmp eq ptr %.044, null
  br i1 %.not31, label %.thread, label %42

42:                                               ; preds = %._crit_edge
  call void @SDL_free_REAL(ptr noundef nonnull %.044) #13
  br label %.thread

.thread:                                          ; preds = %4, %._crit_edge, %42, %9
  call void @llvm.lifetime.end.p0(i64 8, ptr nonnull %5) #13
  ret void
}